target datalayout = "e-m:e-p270:32:32-p271:32:32-p272:64:64-i64:64-i128:128-f80:128-n8:16:32:64-S128"
target triple = "x86_64-pc-linux-gnu"

%struct.reassembly_table = type { ptr, ptr, ptr, ptr, ptr }
%struct.reassembly_table_functions = type { ptr, ptr, ptr, ptr, ptr, ptr }

@proto_register_gelf.ett = internal global [3 x ptr] [ptr @ett_gelf, ptr @ett_gelf_fragment, ptr @ett_gelf_fragments], align 16
@.str.36 = private unnamed_addr constant [28 x i8] c"Graylog Extended Log Format\00", align 1
@.str.37 = private unnamed_addr constant [5 x i8] c"GELF\00", align 1
@.str.38 = private unnamed_addr constant [5 x i8] c"gelf\00", align 1
@proto_gelf = internal global i32 0, align 4
@.str.39 = private unnamed_addr constant [9 x i8] c"gelf-udp\00", align 1
@gelf_udp_handle = internal global ptr null, align 8
@gelf_udp_reassembly_table = internal global %struct.reassembly_table zeroinitializer, align 8
@addresses_reassembly_table_functions = external constant %struct.reassembly_table_functions, align 8

; Function Attrs: null_pointer_is_valid sspstrong uwtable
define hidden void @proto_register_gelf() #0 {
  %1 = alloca ptr, align 8
  call void @llvm.lifetime.start.p0(i64 8, ptr %1) #4
  %2 = call i32 @proto_register_protocol(ptr noundef @.str.36, ptr noundef @.str.37, ptr noundef @.str.38)
  store i32 %2, ptr @proto_gelf, align 4
  %3 = load i32, ptr @proto_gelf, align 4
  %4 = call ptr @register_dissector(ptr noundef @.str.39, ptr noundef @dissect_gelf_udp, i32 noundef %3)
  store ptr %4, ptr @gelf_udp_handle, align 8
  %5 = load i32, ptr @proto_gelf, align 4
  call void @proto_register_field_array(i32 noundef %5, ptr noundef @proto_register_gelf.hf, i32 noundef 15)
  call void @proto_register_subtree_array(ptr noundef @proto_register_gelf.ett, i32 noundef 3)
  %6 = load i32, ptr @proto_gelf, align 4
  %7 = call ptr @expert_register_protocol(i32 noundef %6)
  store ptr %7, ptr %1, align 8
  %8 = load ptr, ptr %1, align 8
  call void @expert_register_field_array(ptr noundef %8, ptr noundef @proto_register_gelf.ei_gelf, i32 noundef 2)
  call void @reassembly_table_register(ptr noundef @gelf_udp_reassembly_table, ptr noundef @addresses_reassembly_table_functions)
  call void @llvm.lifetime.end.p0(i64 8, ptr %1) #4
  ret void
}