; Function Attrs: null_pointer_is_valid sspstrong uwtable
define hidden void @proto_register_gelf() local_unnamed_addr #0 {
  %1 = tail call i32 @proto_register_protocol(ptr noundef nonnull @.str.36, ptr noundef nonnull @.str.37, ptr noundef nonnull @.str.38)
  store i32 %1, ptr @proto_gelf, align 4
  %2 = tail call ptr @register_dissector(ptr noundef nonnull @.str.39, ptr noundef nonnull @dissect_gelf_udp, i32 noundef %1)
  store ptr %2, ptr @gelf_udp_handle, align 8
  %3 = load i32, ptr @proto_gelf, align 4
  tail call void @proto_register_field_array(i32 noundef %3, ptr noundef nonnull @proto_register_gelf.hf, i32 noundef 15)
  tail call void @proto_register_subtree_array(ptr noundef nonnull @proto_register_gelf.ett, i32 noundef 3)
  %4 = load i32, ptr @proto_gelf, align 4
  %5 = tail call ptr @expert_register_protocol(i32 noundef %4)
  tail call void @expert_register_field_array(ptr noundef %5, ptr noundef nonnull @proto_register_gelf.ei_gelf, i32 noundef 2)
  tail call void @reassembly_table_register(ptr noundef nonnull @gelf_udp_reassembly_table, ptr noundef nonnull @addresses_reassembly_table_functions)
  ret void
}